target datalayout = "e-m:e-p270:32:32-p271:32:32-p272:64:64-i64:64-i128:128-f80:128-n8:16:32:64-S128"
target triple = "x86_64-pc-linux-gnu"

%struct.Csw_Man_t_ = type { ptr, ptr, ptr, ptr, ptr, ptr, i32, i32, i32, i32, i32, i32, ptr, [4 x ptr], i32, i32, i32, i32, i32, i64, i64, i64, i64 }
%struct.Aig_Man_t_ = type { ptr, ptr, ptr, ptr, ptr, ptr, ptr, %struct.Aig_Obj_t_, i32, i32, i32, i32, i32, i32, [7 x i32], i32, ptr, i32, ptr, i32, ptr, i32, i32, i32, ptr, i32, i32, i32, i32, i32, ptr, ptr, i32, ptr, ptr, i32, ptr, ptr, i32, i32, i32, ptr, ptr, ptr, ptr, ptr, ptr, ptr, ptr, ptr, ptr, ptr, ptr, ptr, ptr, i32, ptr, ptr, ptr, ptr, i32, i64, i64, i64, ptr, ptr }
%struct.Aig_Obj_t_ = type { %union.anon, ptr, ptr, i64, i32, i32, %union.anon.0 }
%union.anon = type { ptr }
%union.anon.0 = type { ptr }
%struct.Vec_Ptr_t_ = type { i32, i32, ptr }

; Function Attrs: inlinehint nounwind uwtable
define internal ptr @Aig_ManCi(ptr noundef %0, i32 noundef %1) #5 {
  %3 = alloca ptr, align 8
  %4 = alloca i32, align 4
  store ptr %0, ptr %3, align 8, !tbaa !3
  store i32 %1, ptr %4, align 4, !tbaa !8
  %5 = load ptr, ptr %3, align 8, !tbaa !3
  %6 = getelementptr inbounds nuw %struct.Aig_Man_t_, ptr %5, i32 0, i32 2
  %7 = load ptr, ptr %6, align 8, !tbaa !31
  %8 = load i32, ptr %4, align 4, !tbaa !8
  %9 = call ptr @Vec_PtrEntry(ptr noundef %7, i32 noundef %8)
  ret ptr %9
}

; Function Attrs: inlinehint nounwind uwtable
define internal ptr @Vec_PtrEntry(ptr noundef %0, i32 noundef %1) #5 {
  %3 = alloca ptr, align 8
  %4 = alloca i32, align 4
  store ptr %0, ptr %3, align 8, !tbaa !49
  store i32 %1, ptr %4, align 4, !tbaa !8
  %5 = load ptr, ptr %3, align 8, !tbaa !49
  %6 = getelementptr inbounds nuw %struct.Vec_Ptr_t_, ptr %5, i32 0, i32 2
  %7 = load ptr, ptr %6, align 8, !tbaa !52
  %8 = load i32, ptr %4, align 4, !tbaa !8
  %9 = sext i32 %8 to i64
  %10 = getelementptr inbounds ptr, ptr %7, i64 %9
  %11 = load ptr, ptr %10, align 8, !tbaa !53
  ret ptr %11
}

; Function Attrs: inlinehint nounwind uwtable
define internal i32 @Vec_PtrSize(ptr noundef %0) #5 {
  %2 = alloca ptr, align 8
  store ptr %0, ptr %2, align 8, !tbaa !49
  %3 = load ptr, ptr %2, align 8, !tbaa !49
  %4 = getelementptr inbounds nuw %struct.Vec_Ptr_t_, ptr %3, i32 0, i32 1
  %5 = load i32, ptr %4, align 4, !tbaa !50
  ret i32 %5
}

; Function Attrs: inlinehint nounwind uwtable
define internal void @Csw_ObjSetEquiv(ptr noundef %0, ptr noundef %1, ptr noundef %2) #5 {
  %4 = alloca ptr, align 8
  %5 = alloca ptr, align 8
  %6 = alloca ptr, align 8
  store ptr %0, ptr %4, align 8, !tbaa !10
  store ptr %1, ptr %5, align 8, !tbaa !40
  store ptr %2, ptr %6, align 8, !tbaa !40
  %7 = load ptr, ptr %6, align 8, !tbaa !40
  %8 = load ptr, ptr %4, align 8, !tbaa !10
  %9 = getelementptr inbounds nuw %struct.Csw_Man_t_, ptr %8, i32 0, i32 2
  %10 = load ptr, ptr %9, align 8, !tbaa !24
  %11 = load ptr, ptr %5, align 8, !tbaa !40
  %12 = getelementptr inbounds nuw %struct.Aig_Obj_t_, ptr %11, i32 0, i32 5
  %13 = load i32, ptr %12, align 4, !tbaa !47
  %14 = sext i32 %13 to i64
  %15 = getelementptr inbounds ptr, ptr %10, i64 %14
  store ptr %7, ptr %15, align 8, !tbaa !40
  ret void
}

; Function Attrs: inlinehint nounwind uwtable
define internal ptr @Aig_ManConst1(ptr noundef %0) #5 {
  %2 = alloca ptr, align 8
  store ptr %0, ptr %2, align 8, !tbaa !3
  %3 = load ptr, ptr %2, align 8, !tbaa !3
  %4 = getelementptr inbounds nuw %struct.Aig_Man_t_, ptr %3, i32 0, i32 6
  %5 = load ptr, ptr %4, align 8, !tbaa !48
  ret ptr %5
}

; Function Attrs: inlinehint nounwind uwtable
define internal i32 @Abc_PrimeCudd(i32 noundef %0) #5 {
  %2 = alloca i32, align 4
  %3 = alloca i32, align 4
  %4 = alloca i32, align 4
  store i32 %0, ptr %2, align 4, !tbaa !8
  call void @llvm.lifetime.start.p0(i64 4, ptr %3) #9
  call void @llvm.lifetime.start.p0(i64 4, ptr %4) #9
  %5 = load i32, ptr %2, align 4, !tbaa !8
  %6 = add i32 %5, -1
  store i32 %6, ptr %2, align 4, !tbaa !8
  br label %7

7:                                                ; preds = %32, %1
  %8 = load i32, ptr %2, align 4, !tbaa !8
  %9 = add i32 %8, 1
  store i32 %9, ptr %2, align 4, !tbaa !8
  %10 = load i32, ptr %2, align 4, !tbaa !8
  %11 = and i32 %10, 1
  %12 = icmp ne i32 %11, 0
  br i1 %12, label %13, label %30

13:                                               ; preds = %7
  store i32 1, ptr %4, align 4, !tbaa !8
  store i32 3, ptr %3, align 4, !tbaa !8
  br label %14

14:                                               ; preds = %26, %13
  %15 = load i32, ptr %3, align 4, !tbaa !8
  %16 = load i32, ptr %3, align 4, !tbaa !8
  %17 = mul nsw i32 %15, %16
  %18 = load i32, ptr %2, align 4, !tbaa !8
  %19 = icmp ule i32 %17, %18
  br i1 %19, label %20, label %29

20:                                               ; preds = %14
  %21 = load i32, ptr %2, align 4, !tbaa !8
  %22 = load i32, ptr %3, align 4, !tbaa !8
  %23 = urem i32 %21, %22
  %24 = icmp eq i32 %23, 0
  br i1 %24, label %25, label %26

25:                                               ; preds = %20
  store i32 0, ptr %4, align 4, !tbaa !8
  br label %29

26:                                               ; preds = %20
  %27 = load i32, ptr %3, align 4, !tbaa !8
  %28 = add nsw i32 %27, 2
  store i32 %28, ptr %3, align 4, !tbaa !8
  br label %14, !llvm.loop !45

29:                                               ; preds = %25, %14
  br label %31

30:                                               ; preds = %7
  store i32 0, ptr %4, align 4, !tbaa !8
  br label %31

31:                                               ; preds = %30, %29
  br label %32

32:                                               ; preds = %31
  %33 = load i32, ptr %4, align 4, !tbaa !8
  %34 = icmp ne i32 %33, 0
  %35 = xor i1 %34, true
  br i1 %35, label %7, label %36, !llvm.loop !46

36:                                               ; preds = %32
  %37 = load i32, ptr %2, align 4, !tbaa !8
  call void @llvm.lifetime.end.p0(i64 4, ptr %4) #9
  call void @llvm.lifetime.end.p0(i64 4, ptr %3) #9
  ret i32 %37
}

; Function Attrs: inlinehint nounwind uwtable
define internal i32 @Aig_ManNodeNum(ptr noundef %0) #5 {
  %2 = alloca ptr, align 8
  store ptr %0, ptr %2, align 8, !tbaa !3
  %3 = load ptr, ptr %2, align 8, !tbaa !3
  %4 = getelementptr inbounds nuw %struct.Aig_Man_t_, ptr %3, i32 0, i32 14
  %5 = getelementptr inbounds [7 x i32], ptr %4, i64 0, i64 5
  %6 = load i32, ptr %5, align 4, !tbaa !8
  %7 = load ptr, ptr %2, align 8, !tbaa !3
  %8 = getelementptr inbounds nuw %struct.Aig_Man_t_, ptr %7, i32 0, i32 14
  %9 = getelementptr inbounds [7 x i32], ptr %8, i64 0, i64 6
  %10 = load i32, ptr %9, align 8, !tbaa !8
  %11 = add nsw i32 %6, %10
  ret i32 %11
}

; Function Attrs: inlinehint nounwind uwtable
define internal i32 @Abc_TruthWordNum(i32 noundef %0) #5 {
  %2 = alloca i32, align 4
  store i32 %0, ptr %2, align 4, !tbaa !8
  %3 = load i32, ptr %2, align 4, !tbaa !8
  %4 = icmp sle i32 %3, 5
  br i1 %4, label %5, label %6

5:                                                ; preds = %1
  br label %10

6:                                                ; preds = %1
  %7 = load i32, ptr %2, align 4, !tbaa !8
  %8 = sub nsw i32 %7, 5
  %9 = shl i32 1, %8
  br label %10

10:                                               ; preds = %6, %5
  %11 = phi i32 [ 1, %5 ], [ %9, %6 ]
  ret i32 %11
}

; Function Attrs: inlinehint nounwind uwtable
define internal i32 @Aig_ManObjNumMax(ptr noundef %0) #5 {
  %2 = alloca ptr, align 8
  store ptr %0, ptr %2, align 8, !tbaa !3
  %3 = load ptr, ptr %2, align 8, !tbaa !3
  %4 = getelementptr inbounds nuw %struct.Aig_Man_t_, ptr %3, i32 0, i32 4
  %5 = load ptr, ptr %4, align 8, !tbaa !44
  %6 = call i32 @Vec_PtrSize(ptr noundef %5)
  ret i32 %6
}

; Function Attrs: nounwind uwtable
define ptr @Csw_ManStart(ptr noundef %0, i32 noundef %1, i32 noundef %2, i32 noundef %3) #0 {
  %5 = alloca ptr, align 8
  %6 = alloca i32, align 4
  %7 = alloca i32, align 4
  %8 = alloca i32, align 4
  %9 = alloca ptr, align 8
  %10 = alloca ptr, align 8
  %11 = alloca i32, align 4
  store ptr %0, ptr %5, align 8, !tbaa !3
  store i32 %1, ptr %6, align 4, !tbaa !8
  store i32 %2, ptr %7, align 4, !tbaa !8
  store i32 %3, ptr %8, align 4, !tbaa !8
  call void @llvm.lifetime.start.p0(i64 8, ptr %9) #9
  call void @llvm.lifetime.start.p0(i64 8, ptr %10) #9
  call void @llvm.lifetime.start.p0(i64 4, ptr %11) #9
  %12 = call noalias ptr @malloc(i64 noundef 168) #10
  store ptr %12, ptr %9, align 8, !tbaa !10
  %13 = load ptr, ptr %9, align 8, !tbaa !10
  call void @llvm.memset.p0.i64(ptr align 8 %13, i8 0, i64 168, i1 false)
  %14 = load i32, ptr %6, align 4, !tbaa !8
  %15 = load ptr, ptr %9, align 8, !tbaa !10
  %16 = getelementptr inbounds nuw %struct.Csw_Man_t_, ptr %15, i32 0, i32 7
  store i32 %14, ptr %16, align 4, !tbaa !12
  %17 = load i32, ptr %7, align 4, !tbaa !8
  %18 = load ptr, ptr %9, align 8, !tbaa !10
  %19 = getelementptr inbounds nuw %struct.Csw_Man_t_, ptr %18, i32 0, i32 8
  store i32 %17, ptr %19, align 8, !tbaa !19
  %20 = load i32, ptr %8, align 4, !tbaa !8
  %21 = load ptr, ptr %9, align 8, !tbaa !10
  %22 = getelementptr inbounds nuw %struct.Csw_Man_t_, ptr %21, i32 0, i32 9
  store i32 %20, ptr %22, align 4, !tbaa !20
  %23 = load ptr, ptr %5, align 8, !tbaa !3
  %24 = load ptr, ptr %9, align 8, !tbaa !10
  %25 = getelementptr inbounds nuw %struct.Csw_Man_t_, ptr %24, i32 0, i32 0
  store ptr %23, ptr %25, align 8, !tbaa !21
  %26 = load ptr, ptr %5, align 8, !tbaa !3
  %27 = call ptr @Aig_ManStartFrom(ptr noundef %26)
  %28 = load ptr, ptr %9, align 8, !tbaa !10
  %29 = getelementptr inbounds nuw %struct.Csw_Man_t_, ptr %28, i32 0, i32 1
  store ptr %27, ptr %29, align 8, !tbaa !22
  %30 = load ptr, ptr %5, align 8, !tbaa !3
  %31 = call i32 @Aig_ManObjNumMax(ptr noundef %30)
  %32 = sext i32 %31 to i64
  %33 = mul i64 4, %32
  %34 = call noalias ptr @malloc(i64 noundef %33) #10
  %35 = load ptr, ptr %9, align 8, !tbaa !10
  %36 = getelementptr inbounds nuw %struct.Csw_Man_t_, ptr %35, i32 0, i32 4
  store ptr %34, ptr %36, align 8, !tbaa !23
  %37 = load ptr, ptr %5, align 8, !tbaa !3
  %38 = call i32 @Aig_ManObjNumMax(ptr noundef %37)
  %39 = sext i32 %38 to i64
  %40 = mul i64 8, %39
  %41 = call noalias ptr @malloc(i64 noundef %40) #10
  %42 = load ptr, ptr %9, align 8, !tbaa !10
  %43 = getelementptr inbounds nuw %struct.Csw_Man_t_, ptr %42, i32 0, i32 2
  store ptr %41, ptr %43, align 8, !tbaa !24
  %44 = load ptr, ptr %5, align 8, !tbaa !3
  %45 = call i32 @Aig_ManObjNumMax(ptr noundef %44)
  %46 = sext i32 %45 to i64
  %47 = mul i64 8, %46
  %48 = call noalias ptr @malloc(i64 noundef %47) #10
  %49 = load ptr, ptr %9, align 8, !tbaa !10
  %50 = getelementptr inbounds nuw %struct.Csw_Man_t_, ptr %49, i32 0, i32 3
  store ptr %48, ptr %50, align 8, !tbaa !25
  %51 = load ptr, ptr %9, align 8, !tbaa !10
  %52 = getelementptr inbounds nuw %struct.Csw_Man_t_, ptr %51, i32 0, i32 3
  %53 = load ptr, ptr %52, align 8, !tbaa !25
  %54 = load ptr, ptr %5, align 8, !tbaa !3
  %55 = call i32 @Aig_ManObjNumMax(ptr noundef %54)
  %56 = sext i32 %55 to i64
  %57 = mul i64 8, %56
  call void @llvm.memset.p0.i64(ptr align 8 %53, i8 0, i64 %57, i1 false)
  %58 = load ptr, ptr %9, align 8, !tbaa !10
  %59 = getelementptr inbounds nuw %struct.Csw_Man_t_, ptr %58, i32 0, i32 4
  %60 = load ptr, ptr %59, align 8, !tbaa !23
  %61 = load ptr, ptr %5, align 8, !tbaa !3
  %62 = call i32 @Aig_ManObjNumMax(ptr noundef %61)
  %63 = sext i32 %62 to i64
  %64 = mul i64 4, %63
  call void @llvm.memset.p0.i64(ptr align 4 %60, i8 0, i64 %64, i1 false)
  %65 = load i32, ptr %7, align 4, !tbaa !8
  %66 = call i32 @Abc_TruthWordNum(i32 noundef %65)
  %67 = load ptr, ptr %9, align 8, !tbaa !10
  %68 = getelementptr inbounds nuw %struct.Csw_Man_t_, ptr %67, i32 0, i32 11
  store i32 %66, ptr %68, align 4, !tbaa !26
  %69 = load i32, ptr %7, align 4, !tbaa !8
  %70 = sext i32 %69 to i64
  %71 = mul i64 4, %70
  %72 = add i64 24, %71
  %73 = load ptr, ptr %9, align 8, !tbaa !10
  %74 = getelementptr inbounds nuw %struct.Csw_Man_t_, ptr %73, i32 0, i32 11
  %75 = load i32, ptr %74, align 4, !tbaa !26
  %76 = sext i32 %75 to i64
  %77 = mul i64 4, %76
  %78 = add i64 %72, %77
  %79 = trunc i64 %78 to i32
  %80 = load ptr, ptr %9, align 8, !tbaa !10
  %81 = getelementptr inbounds nuw %struct.Csw_Man_t_, ptr %80, i32 0, i32 10
  store i32 %79, ptr %81, align 8, !tbaa !27
  %82 = load ptr, ptr %9, align 8, !tbaa !10
  %83 = getelementptr inbounds nuw %struct.Csw_Man_t_, ptr %82, i32 0, i32 10
  %84 = load i32, ptr %83, align 8, !tbaa !27
  %85 = load ptr, ptr %9, align 8, !tbaa !10
  %86 = getelementptr inbounds nuw %struct.Csw_Man_t_, ptr %85, i32 0, i32 7
  %87 = load i32, ptr %86, align 4, !tbaa !12
  %88 = mul nsw i32 %84, %87
  %89 = call ptr @Aig_MmFixedStart(i32 noundef %88, i32 noundef 512)
  %90 = load ptr, ptr %9, align 8, !tbaa !10
  %91 = getelementptr inbounds nuw %struct.Csw_Man_t_, ptr %90, i32 0, i32 12
  store ptr %89, ptr %91, align 8, !tbaa !28
  %92 = load ptr, ptr %5, align 8, !tbaa !3
  %93 = call i32 @Aig_ManNodeNum(ptr noundef %92)
  %94 = load ptr, ptr %9, align 8, !tbaa !10
  %95 = getelementptr inbounds nuw %struct.Csw_Man_t_, ptr %94, i32 0, i32 7
  %96 = load i32, ptr %95, align 4, !tbaa !12
  %97 = mul nsw i32 %93, %96
  %98 = sdiv i32 %97, 2
  %99 = call i32 @Abc_PrimeCudd(i32 noundef %98)
  %100 = load ptr, ptr %9, align 8, !tbaa !10
  %101 = getelementptr inbounds nuw %struct.Csw_Man_t_, ptr %100, i32 0, i32 6
  store i32 %99, ptr %101, align 8, !tbaa !29
  %102 = load ptr, ptr %9, align 8, !tbaa !10
  %103 = getelementptr inbounds nuw %struct.Csw_Man_t_, ptr %102, i32 0, i32 6
  %104 = load i32, ptr %103, align 8, !tbaa !29
  %105 = sext i32 %104 to i64
  %106 = mul i64 8, %105
  %107 = call noalias ptr @malloc(i64 noundef %106) #10
  %108 = load ptr, ptr %9, align 8, !tbaa !10
  %109 = getelementptr inbounds nuw %struct.Csw_Man_t_, ptr %108, i32 0, i32 5
  store ptr %107, ptr %109, align 8, !tbaa !30
  %110 = load ptr, ptr %9, align 8, !tbaa !10
  %111 = getelementptr inbounds nuw %struct.Csw_Man_t_, ptr %110, i32 0, i32 5
  %112 = load ptr, ptr %111, align 8, !tbaa !30
  %113 = load ptr, ptr %9, align 8, !tbaa !10
  %114 = getelementptr inbounds nuw %struct.Csw_Man_t_, ptr %113, i32 0, i32 6
  %115 = load i32, ptr %114, align 8, !tbaa !29
  %116 = sext i32 %115 to i64
  %117 = mul i64 8, %116
  call void @llvm.memset.p0.i64(ptr align 8 %112, i8 0, i64 %117, i1 false)
  %118 = load ptr, ptr %9, align 8, !tbaa !10
  %119 = load ptr, ptr %9, align 8, !tbaa !10
  %120 = getelementptr inbounds nuw %struct.Csw_Man_t_, ptr %119, i32 0, i32 0
  %121 = load ptr, ptr %120, align 8, !tbaa !21
  %122 = call ptr @Aig_ManConst1(ptr noundef %121)
  %123 = load ptr, ptr %9, align 8, !tbaa !10
  %124 = getelementptr inbounds nuw %struct.Csw_Man_t_, ptr %123, i32 0, i32 1
  %125 = load ptr, ptr %124, align 8, !tbaa !22
  %126 = call ptr @Aig_ManConst1(ptr noundef %125)
  call void @Csw_ObjSetEquiv(ptr noundef %118, ptr noundef %122, ptr noundef %126)
  store i32 0, ptr %11, align 4, !tbaa !8
  br label %127

127:                                              ; preds = %154, %4
  %128 = load i32, ptr %11, align 4, !tbaa !8
  %129 = load ptr, ptr %9, align 8, !tbaa !10
  %130 = getelementptr inbounds nuw %struct.Csw_Man_t_, ptr %129, i32 0, i32 0
  %131 = load ptr, ptr %130, align 8, !tbaa !21
  %132 = getelementptr inbounds nuw %struct.Aig_Man_t_, ptr %131, i32 0, i32 2
  %133 = load ptr, ptr %132, align 8, !tbaa !31
  %134 = call i32 @Vec_PtrSize(ptr noundef %133)
  %135 = icmp slt i32 %128, %134
  br i1 %135, label %136, label %144

136:                                              ; preds = %127
  %137 = load ptr, ptr %9, align 8, !tbaa !10
  %138 = getelementptr inbounds nuw %struct.Csw_Man_t_, ptr %137, i32 0, i32 0
  %139 = load ptr, ptr %138, align 8, !tbaa !21
  %140 = getelementptr inbounds nuw %struct.Aig_Man_t_, ptr %139, i32 0, i32 2
  %141 = load ptr, ptr %140, align 8, !tbaa !31
  %142 = load i32, ptr %11, align 4, !tbaa !8
  %143 = call ptr @Vec_PtrEntry(ptr noundef %141, i32 noundef %142)
  store ptr %143, ptr %10, align 8, !tbaa !40
  br label %144

144:                                              ; preds = %136, %127
  %145 = phi i1 [ false, %127 ], [ true, %136 ]
  br i1 %145, label %146, label %157

146:                                              ; preds = %144
  %147 = load ptr, ptr %9, align 8, !tbaa !10
  %148 = load ptr, ptr %10, align 8, !tbaa !40
  %149 = load ptr, ptr %9, align 8, !tbaa !10
  %150 = getelementptr inbounds nuw %struct.Csw_Man_t_, ptr %149, i32 0, i32 1
  %151 = load ptr, ptr %150, align 8, !tbaa !22
  %152 = load i32, ptr %11, align 4, !tbaa !8
  %153 = call ptr @Aig_ManCi(ptr noundef %151, i32 noundef %152)
  call void @Csw_ObjSetEquiv(ptr noundef %147, ptr noundef %148, ptr noundef %153)
  br label %154

154:                                              ; preds = %146
  %155 = load i32, ptr %11, align 4, !tbaa !8
  %156 = add nsw i32 %155, 1
  store i32 %156, ptr %11, align 4, !tbaa !8
  br label %127, !llvm.loop !41

157:                                              ; preds = %144
  %158 = load ptr, ptr %9, align 8, !tbaa !10
  %159 = getelementptr inbounds nuw %struct.Csw_Man_t_, ptr %158, i32 0, i32 11
  %160 = load i32, ptr %159, align 4, !tbaa !26
  %161 = mul nsw i32 4, %160
  %162 = sext i32 %161 to i64
  %163 = mul i64 4, %162
  %164 = call noalias ptr @malloc(i64 noundef %163) #10
  %165 = load ptr, ptr %9, align 8, !tbaa !10
  %166 = getelementptr inbounds nuw %struct.Csw_Man_t_, ptr %165, i32 0, i32 13
  %167 = getelementptr inbounds [4 x ptr], ptr %166, i64 0, i64 0
  store ptr %164, ptr %167, align 8, !tbaa !43
  %168 = load ptr, ptr %9, align 8, !tbaa !10
  %169 = getelementptr inbounds nuw %struct.Csw_Man_t_, ptr %168, i32 0, i32 13
  %170 = getelementptr inbounds [4 x ptr], ptr %169, i64 0, i64 0
  %171 = load ptr, ptr %170, align 8, !tbaa !43
  %172 = load ptr, ptr %9, align 8, !tbaa !10
  %173 = getelementptr inbounds nuw %struct.Csw_Man_t_, ptr %172, i32 0, i32 11
  %174 = load i32, ptr %173, align 4, !tbaa !26
  %175 = sext i32 %174 to i64
  %176 = getelementptr inbounds i32, ptr %171, i64 %175
  %177 = load ptr, ptr %9, align 8, !tbaa !10
  %178 = getelementptr inbounds nuw %struct.Csw_Man_t_, ptr %177, i32 0, i32 13
  %179 = getelementptr inbounds [4 x ptr], ptr %178, i64 0, i64 1
  store ptr %176, ptr %179, align 8, !tbaa !43
  %180 = load ptr, ptr %9, align 8, !tbaa !10
  %181 = getelementptr inbounds nuw %struct.Csw_Man_t_, ptr %180, i32 0, i32 13
  %182 = getelementptr inbounds [4 x ptr], ptr %181, i64 0, i64 1
  %183 = load ptr, ptr %182, align 8, !tbaa !43
  %184 = load ptr, ptr %9, align 8, !tbaa !10
  %185 = getelementptr inbounds nuw %struct.Csw_Man_t_, ptr %184, i32 0, i32 11
  %186 = load i32, ptr %185, align 4, !tbaa !26
  %187 = sext i32 %186 to i64
  %188 = getelementptr inbounds i32, ptr %183, i64 %187
  %189 = load ptr, ptr %9, align 8, !tbaa !10
  %190 = getelementptr inbounds nuw %struct.Csw_Man_t_, ptr %189, i32 0, i32 13
  %191 = getelementptr inbounds [4 x ptr], ptr %190, i64 0, i64 2
  store ptr %188, ptr %191, align 8, !tbaa !43
  %192 = load ptr, ptr %9, align 8, !tbaa !10
  %193 = getelementptr inbounds nuw %struct.Csw_Man_t_, ptr %192, i32 0, i32 13
  %194 = getelementptr inbounds [4 x ptr], ptr %193, i64 0, i64 2
  %195 = load ptr, ptr %194, align 8, !tbaa !43
  %196 = load ptr, ptr %9, align 8, !tbaa !10
  %197 = getelementptr inbounds nuw %struct.Csw_Man_t_, ptr %196, i32 0, i32 11
  %198 = load i32, ptr %197, align 4, !tbaa !26
  %199 = sext i32 %198 to i64
  %200 = getelementptr inbounds i32, ptr %195, i64 %199
  %201 = load ptr, ptr %9, align 8, !tbaa !10
  %202 = getelementptr inbounds nuw %struct.Csw_Man_t_, ptr %201, i32 0, i32 13
  %203 = getelementptr inbounds [4 x ptr], ptr %202, i64 0, i64 3
  store ptr %200, ptr %203, align 8, !tbaa !43
  %204 = load ptr, ptr %9, align 8, !tbaa !10
  call void @llvm.lifetime.end.p0(i64 4, ptr %11) #9
  call void @llvm.lifetime.end.p0(i64 8, ptr %10) #9
  call void @llvm.lifetime.end.p0(i64 8, ptr %9) #9
  ret ptr %204
}