; Function Attrs: nounwind uwtable
define noalias noundef ptr @Csw_ManStart(ptr noundef %0, i32 noundef %1, i32 noundef %2, i32 noundef %3) local_unnamed_addr #0 {
  %calloc80 = tail call dereferenceable_or_null(168) ptr @calloc(i64 1, i64 168)
  %5 = getelementptr inbounds nuw i8, ptr %calloc80, i64 52
  store i32 %1, ptr %5, align 4, !tbaa !3
  %6 = getelementptr inbounds nuw i8, ptr %calloc80, i64 56
  store i32 %2, ptr %6, align 8, !tbaa !15
  %7 = getelementptr inbounds nuw i8, ptr %calloc80, i64 60
  store i32 %3, ptr %7, align 4, !tbaa !16
  store ptr %0, ptr %calloc80, align 8, !tbaa !17
  %8 = tail call ptr @Aig_ManStartFrom(ptr noundef %0) #10
  %9 = getelementptr inbounds nuw i8, ptr %calloc80, i64 8
  store ptr %8, ptr %9, align 8, !tbaa !18
  %10 = getelementptr i8, ptr %0, i64 32
  %.val59 = load ptr, ptr %10, align 8, !tbaa !19
  %11 = getelementptr i8, ptr %.val59, i64 4
  %.val59.val = load i32, ptr %11, align 4, !tbaa !28
  %12 = sext i32 %.val59.val to i64
  %13 = shl nsw i64 %12, 2
  %calloc82 = tail call ptr @calloc(i64 1, i64 %13)
  %14 = getelementptr inbounds nuw i8, ptr %calloc80, i64 32
  store ptr %calloc82, ptr %14, align 8, !tbaa !30
  %15 = shl nsw i64 %12, 3
  %16 = tail call noalias ptr @malloc(i64 noundef %15) #11
  %17 = getelementptr inbounds nuw i8, ptr %calloc80, i64 16
  store ptr %16, ptr %17, align 8, !tbaa !31
  %calloc81 = tail call ptr @calloc(i64 1, i64 %15)
  %18 = getelementptr inbounds nuw i8, ptr %calloc80, i64 24
  store ptr %calloc81, ptr %18, align 8, !tbaa !32
  %19 = icmp slt i32 %2, 6
  %20 = add nsw i32 %2, -5
  %21 = shl nuw i32 1, %20
  %22 = select i1 %19, i32 1, i32 %21
  %23 = getelementptr inbounds nuw i8, ptr %calloc80, i64 68
  store i32 %22, ptr %23, align 4, !tbaa !33
  %24 = add i32 %22, %2
  %25 = shl i32 %24, 2
  %26 = add i32 %25, 24
  %27 = getelementptr inbounds nuw i8, ptr %calloc80, i64 64
  store i32 %26, ptr %27, align 8, !tbaa !34
  %28 = mul nsw i32 %26, %1
  %29 = tail call ptr @Aig_MmFixedStart(i32 noundef %28, i32 noundef 512) #10
  %30 = getelementptr inbounds nuw i8, ptr %calloc80, i64 72
  store ptr %29, ptr %30, align 8, !tbaa !35
  %31 = getelementptr i8, ptr %0, i64 148
  %.val64 = load i32, ptr %31, align 4, !tbaa !36
  %32 = getelementptr i8, ptr %0, i64 152
  %.val65 = load i32, ptr %32, align 8, !tbaa !36
  %33 = add nsw i32 %.val65, %.val64
  %34 = mul nsw i32 %33, %1
  %35 = sdiv i32 %34, 2
  %36 = add nsw i32 %35, -1
  br label %.loopexit.i

.loopexit.i:                                      ; preds = %.loopexit.i.backedge, %4
  %.012.i = phi i32 [ %36, %4 ], [ %37, %.loopexit.i.backedge ]
  %37 = add i32 %.012.i, 1
  %38 = and i32 %.012.i, 1
  %.not.not.i = icmp eq i32 %38, 0
  br i1 %.not.not.i, label %.preheader.i, label %.loopexit.i.backedge

.loopexit.i.backedge:                             ; preds = %.lr.ph.i, %.loopexit.i
  br label %.loopexit.i, !llvm.loop !37

.preheader.i:                                     ; preds = %.loopexit.i
  %.not15.i = icmp ult i32 %37, 9
  br i1 %.not15.i, label %Abc_PrimeCudd.exit, label %.lr.ph.i

39:                                               ; preds = %.lr.ph.i
  %40 = add nuw nsw i32 %.01116.i, 2
  %41 = mul nuw nsw i32 %40, %40
  %.not.i = icmp ugt i32 %41, %37
  br i1 %.not.i, label %Abc_PrimeCudd.exit, label %.lr.ph.i, !llvm.loop !39

.lr.ph.i:                                         ; preds = %.preheader.i, %39
  %.01116.i = phi i32 [ %40, %39 ], [ 3, %.preheader.i ]
  %42 = urem i32 %37, %.01116.i
  %43 = icmp eq i32 %42, 0
  br i1 %43, label %.loopexit.i.backedge, label %39, !llvm.loop !37

Abc_PrimeCudd.exit:                               ; preds = %.preheader.i, %39
  %44 = getelementptr inbounds nuw i8, ptr %calloc80, i64 48
  store i32 %37, ptr %44, align 8, !tbaa !40
  %45 = sext i32 %37 to i64
  %46 = shl nsw i64 %45, 3
  %calloc = tail call ptr @calloc(i64 1, i64 %46)
  %47 = getelementptr inbounds nuw i8, ptr %calloc80, i64 40
  store ptr %calloc, ptr %47, align 8, !tbaa !41
  %48 = getelementptr i8, ptr %0, i64 48
  %.val66 = load ptr, ptr %48, align 8, !tbaa !42
  %49 = getelementptr i8, ptr %8, i64 48
  %.val67 = load ptr, ptr %49, align 8, !tbaa !42
  %50 = getelementptr i8, ptr %.val66, i64 36
  %.val69 = load i32, ptr %50, align 4, !tbaa !43
  %51 = sext i32 %.val69 to i64
  %52 = getelementptr inbounds ptr, ptr %16, i64 %51
  store ptr %.val67, ptr %52, align 8, !tbaa !44
  %53 = getelementptr inbounds nuw i8, ptr %0, i64 16
  %54 = load ptr, ptr %53, align 8, !tbaa !45
  %55 = getelementptr i8, ptr %54, i64 4
  %.val = load i32, ptr %55, align 4, !tbaa !28
  %56 = icmp sgt i32 %.val, 0
  br i1 %56, label %.lr.ph, label %.critedge

.lr.ph:                                           ; preds = %Abc_PrimeCudd.exit
  %57 = getelementptr i8, ptr %54, i64 8
  %.val72 = load ptr, ptr %57, align 8, !tbaa !46
  %58 = getelementptr i8, ptr %8, i64 16
  %.val73 = load ptr, ptr %58, align 8, !tbaa !45
  %59 = getelementptr i8, ptr %.val73, i64 8
  %.val73.val = load ptr, ptr %59, align 8, !tbaa !46
  %wide.trip.count = zext nneg i32 %.val to i64
  br label %60

60:                                               ; preds = %.lr.ph, %60
  %indvars.iv = phi i64 [ 0, %.lr.ph ], [ %indvars.iv.next, %60 ]
  %61 = getelementptr inbounds nuw ptr, ptr %.val72, i64 %indvars.iv
  %62 = load ptr, ptr %61, align 8, !tbaa !47
  %63 = getelementptr inbounds nuw ptr, ptr %.val73.val, i64 %indvars.iv
  %64 = load ptr, ptr %63, align 8, !tbaa !47
  %65 = getelementptr i8, ptr %62, i64 36
  %.val71 = load i32, ptr %65, align 4, !tbaa !43
  %66 = sext i32 %.val71 to i64
  %67 = getelementptr inbounds ptr, ptr %16, i64 %66
  store ptr %64, ptr %67, align 8, !tbaa !44
  %indvars.iv.next = add nuw nsw i64 %indvars.iv, 1
  %exitcond.not = icmp eq i64 %indvars.iv.next, %wide.trip.count
  br i1 %exitcond.not, label %.critedge, label %60, !llvm.loop !48

.critedge:                                        ; preds = %60, %Abc_PrimeCudd.exit
  %68 = shl nsw i32 %22, 2
  %69 = sext i32 %68 to i64
  %70 = shl nsw i64 %69, 2
  %71 = tail call noalias ptr @malloc(i64 noundef %70) #11
  %72 = getelementptr inbounds nuw i8, ptr %calloc80, i64 80
  store ptr %71, ptr %72, align 8, !tbaa !49
  %73 = sext i32 %22 to i64
  %74 = getelementptr inbounds i32, ptr %71, i64 %73
  %75 = getelementptr inbounds nuw i8, ptr %calloc80, i64 88
  store ptr %74, ptr %75, align 8, !tbaa !49
  %76 = getelementptr inbounds i32, ptr %74, i64 %73
  %77 = getelementptr inbounds nuw i8, ptr %calloc80, i64 96
  store ptr %76, ptr %77, align 8, !tbaa !49
  %78 = getelementptr inbounds i32, ptr %76, i64 %73
  %79 = getelementptr inbounds nuw i8, ptr %calloc80, i64 104
  store ptr %78, ptr %79, align 8, !tbaa !49
  ret ptr %calloc80
}